target datalayout = "e-m:e-p270:32:32-p271:32:32-p272:64:64-i64:64-i128:128-f80:128-n8:16:32:64-S128"
target triple = "x86_64-pc-linux-gnu"

%"class.sat::literal" = type { i32 }
%class.rational = type { %class.mpq }
%class.mpq = type { %class.mpz, %class.mpz }
%class.mpz = type { i32, i8, ptr }
%"struct.smt::theory_pb::arg_t" = type { %class.vector, %class.rational }
%class.vector = type { ptr }
%"struct.std::pair" = type { %"class.sat::literal", %class.rational }
%"struct.smt::theory_pb::ineq" = type <{ ptr, %"class.sat::literal", i8, [3 x i8], [2 x %"struct.smt::theory_pb::arg_t"], %class._scoped_numeral, i32, [4 x i8], %class._scoped_numeral, i32, [4 x i8], %class._scoped_numeral, %class._scoped_numeral, i32, [4 x i8] }>
%class._scoped_numeral = type { ptr, %class.mpz }

; Function Attrs: mustprogress nounwind uwtable
define linkonce_odr hidden noundef nonnull align 8 dereferenceable(40) ptr @_ZNK6vectorISt4pairIN3sat7literalE8rationalELb1EjEixEj(ptr noundef nonnull align 8 dereferenceable(8) %0, i32 noundef %1) #4 comdat align 2 {
  %3 = alloca ptr, align 8
  %4 = alloca i32, align 4
  store ptr %0, ptr %3, align 8, !tbaa !36
  store i32 %1, ptr %4, align 4, !tbaa !8
  %5 = load ptr, ptr %3, align 8
  %6 = getelementptr inbounds nuw %class.vector, ptr %5, i32 0, i32 0
  %7 = load ptr, ptr %6, align 8, !tbaa !38
  %8 = load i32, ptr %4, align 4, !tbaa !8
  %9 = zext i32 %8 to i64
  %10 = getelementptr inbounds nuw %"struct.std::pair", ptr %7, i64 %9
  ret ptr %10
}

; Function Attrs: mustprogress nounwind uwtable
define linkonce_odr hidden noundef zeroext i1 @_ZNK3sat7literal4signEv(ptr noundef nonnull align 4 dereferenceable(4) %0) #4 comdat align 2 {
  %2 = alloca ptr, align 8
  store ptr %0, ptr %2, align 8, !tbaa !3
  %3 = load ptr, ptr %2, align 8
  %4 = getelementptr inbounds nuw %"class.sat::literal", ptr %3, i32 0, i32 0
  %5 = load i32, ptr %4, align 4, !tbaa !14
  %6 = zext i32 %5 to i64
  %7 = and i64 %6, 1
  %8 = icmp ne i64 %7, 0
  ret i1 %8
}

; Function Attrs: mustprogress nounwind uwtable
define linkonce_odr hidden noundef nonnull align 8 dereferenceable(16) ptr @_ZNK3mpq9numeratorEv(ptr noundef nonnull align 8 dereferenceable(32) %0) #4 comdat align 2 {
  %2 = alloca ptr, align 8
  store ptr %0, ptr %2, align 8, !tbaa !726
  %3 = load ptr, ptr %2, align 8
  %4 = getelementptr inbounds nuw %class.mpq, ptr %3, i32 0, i32 0
  ret ptr %4
}

; Function Attrs: mustprogress nounwind uwtable
define linkonce_odr hidden noundef nonnull align 8 dereferenceable(32) ptr @_ZNK8rational6to_mpqEv(ptr noundef nonnull align 8 dereferenceable(32) %0) #4 comdat align 2 {
  %2 = alloca ptr, align 8
  store ptr %0, ptr %2, align 8, !tbaa !43
  %3 = load ptr, ptr %2, align 8
  %4 = getelementptr inbounds nuw %class.rational, ptr %3, i32 0, i32 0
  ret ptr %4
}

; Function Attrs: mustprogress nounwind uwtable
define linkonce_odr hidden noundef nonnull align 8 dereferenceable(32) ptr @_ZNK3smt9theory_pb4ineq5coeffEj(ptr noundef nonnull align 8 dereferenceable(212) %0, i32 noundef %1) #4 comdat align 2 {
  %3 = alloca ptr, align 8
  %4 = alloca i32, align 4
  store ptr %0, ptr %3, align 8, !tbaa !597
  store i32 %1, ptr %4, align 4, !tbaa !8
  %5 = load ptr, ptr %3, align 8
  %6 = call noundef nonnull align 8 dereferenceable(40) ptr @_ZNK3smt9theory_pb4ineq4argsEv(ptr noundef nonnull align 8 dereferenceable(212) %5)
  %7 = load i32, ptr %4, align 4, !tbaa !8
  %8 = call noundef nonnull align 8 dereferenceable(40) ptr @_ZNK6vectorISt4pairIN3sat7literalE8rationalELb1EjEixEj(ptr noundef nonnull align 8 dereferenceable(8) %6, i32 noundef %7)
  %9 = getelementptr inbounds nuw %"struct.std::pair", ptr %8, i32 0, i32 1
  ret ptr %9
}

; Function Attrs: mustprogress nounwind uwtable
define linkonce_odr hidden noundef i32 @_ZNK6vectorISt4pairIN3sat7literalE8rationalELb1EjE4sizeEv(ptr noundef nonnull align 8 dereferenceable(8) %0) #4 comdat align 2 {
  %2 = alloca i32, align 4
  %3 = alloca ptr, align 8
  store ptr %0, ptr %3, align 8, !tbaa !36
  %4 = load ptr, ptr %3, align 8
  %5 = getelementptr inbounds nuw %class.vector, ptr %4, i32 0, i32 0
  %6 = load ptr, ptr %5, align 8, !tbaa !38
  %7 = icmp eq ptr %6, null
  br i1 %7, label %8, label %9

8:                                                ; preds = %1
  store i32 0, ptr %2, align 4
  br label %14

9:                                                ; preds = %1
  %10 = getelementptr inbounds nuw %class.vector, ptr %4, i32 0, i32 0
  %11 = load ptr, ptr %10, align 8, !tbaa !38
  %12 = getelementptr inbounds i32, ptr %11, i64 -1
  %13 = load i32, ptr %12, align 4, !tbaa !8
  store i32 %13, ptr %2, align 4
  br label %14

14:                                               ; preds = %9, %8
  %15 = load i32, ptr %2, align 4
  ret i32 %15
}

; Function Attrs: mustprogress nounwind uwtable
define linkonce_odr hidden noundef nonnull align 8 dereferenceable(40) ptr @_ZNK3smt9theory_pb4ineq4argsEv(ptr noundef nonnull align 8 dereferenceable(212) %0) #4 comdat align 2 {
  %2 = alloca ptr, align 8
  store ptr %0, ptr %2, align 8, !tbaa !597
  %3 = load ptr, ptr %2, align 8
  %4 = getelementptr inbounds nuw %"struct.smt::theory_pb::ineq", ptr %3, i32 0, i32 4
  %5 = getelementptr inbounds nuw %"struct.smt::theory_pb::ineq", ptr %3, i32 0, i32 1
  %6 = call noundef zeroext i1 @_ZNK3sat7literal4signEv(ptr noundef nonnull align 4 dereferenceable(4) %5)
  %7 = zext i1 %6 to i64
  %8 = getelementptr inbounds nuw [2 x %"struct.smt::theory_pb::arg_t"], ptr %4, i64 0, i64 %7
  ret ptr %8
}

; Function Attrs: mustprogress nounwind uwtable
define linkonce_odr hidden noundef nonnull align 8 dereferenceable(600) ptr @_ZNK15_scoped_numeralI11mpz_managerILb0EEE1mEv(ptr noundef nonnull align 8 dereferenceable(24) %0) #4 comdat align 2 {
  %2 = alloca ptr, align 8
  store ptr %0, ptr %2, align 8, !tbaa !605
  %3 = load ptr, ptr %2, align 8
  %4 = getelementptr inbounds nuw %class._scoped_numeral, ptr %3, i32 0, i32 0
  %5 = load ptr, ptr %4, align 8, !tbaa !782
  ret ptr %5
}

; Function Attrs: mustprogress uwtable
define linkonce_odr hidden noundef nonnull align 8 dereferenceable(24) ptr @_ZN15_scoped_numeralI11mpz_managerILb0EEEpLERK3mpz(ptr noundef nonnull align 8 dereferenceable(24) %0, ptr noundef nonnull align 8 dereferenceable(16) %1) #6 comdat align 2 {
  %3 = alloca ptr, align 8
  %4 = alloca ptr, align 8
  store ptr %0, ptr %3, align 8, !tbaa !605
  store ptr %1, ptr %4, align 8, !tbaa !707
  %5 = load ptr, ptr %3, align 8
  %6 = call noundef nonnull align 8 dereferenceable(600) ptr @_ZNK15_scoped_numeralI11mpz_managerILb0EEE1mEv(ptr noundef nonnull align 8 dereferenceable(24) %5)
  %7 = getelementptr inbounds nuw %class._scoped_numeral, ptr %5, i32 0, i32 1
  %8 = load ptr, ptr %4, align 8, !tbaa !707
  %9 = getelementptr inbounds nuw %class._scoped_numeral, ptr %5, i32 0, i32 1
  call void @_ZN11mpz_managerILb0EE3addERK3mpzS3_RS1_(ptr noundef nonnull align 8 dereferenceable(600) %6, ptr noundef nonnull align 8 dereferenceable(16) %7, ptr noundef nonnull align 8 dereferenceable(16) %8, ptr noundef nonnull align 8 dereferenceable(16) %9)
  ret ptr %5
}

; Function Attrs: mustprogress uwtable
define linkonce_odr hidden noundef nonnull align 8 dereferenceable(16) ptr @_ZNK3smt9theory_pb4ineq6ncoeffEj(ptr noundef nonnull align 8 dereferenceable(212) %0, i32 noundef %1) #6 comdat align 2 {
  %3 = alloca ptr, align 8
  %4 = alloca i32, align 4
  store ptr %0, ptr %3, align 8, !tbaa !597
  store i32 %1, ptr %4, align 4, !tbaa !8
  %5 = load ptr, ptr %3, align 8
  %6 = load i32, ptr %4, align 4, !tbaa !8
  %7 = call noundef nonnull align 8 dereferenceable(32) ptr @_ZNK3smt9theory_pb4ineq5coeffEj(ptr noundef nonnull align 8 dereferenceable(212) %5, i32 noundef %6)
  %8 = call noundef nonnull align 8 dereferenceable(32) ptr @_ZNK8rational6to_mpqEv(ptr noundef nonnull align 8 dereferenceable(32) %7)
  %9 = call noundef nonnull align 8 dereferenceable(16) ptr @_ZNK3mpq9numeratorEv(ptr noundef nonnull align 8 dereferenceable(32) %8)
  ret ptr %9
}

; Function Attrs: mustprogress uwtable
define linkonce_odr hidden noundef i32 @_ZNK3smt9theory_pb4ineq4sizeEv(ptr noundef nonnull align 8 dereferenceable(212) %0) #6 comdat align 2 {
  %2 = alloca ptr, align 8
  store ptr %0, ptr %2, align 8, !tbaa !597
  %3 = load ptr, ptr %2, align 8
  %4 = call noundef nonnull align 8 dereferenceable(40) ptr @_ZNK3smt9theory_pb4ineq4argsEv(ptr noundef nonnull align 8 dereferenceable(212) %3)
  %5 = call noundef i32 @_ZNK6vectorISt4pairIN3sat7literalE8rationalELb1EjE4sizeEv(ptr noundef nonnull align 8 dereferenceable(8) %4)
  ret i32 %5
}

; Function Attrs: mustprogress uwtable
define linkonce_odr hidden void @_ZN15_scoped_numeralI11mpz_managerILb0EEE5resetEv(ptr noundef nonnull align 8 dereferenceable(24) %0) #6 comdat align 2 {
  %2 = alloca ptr, align 8
  store ptr %0, ptr %2, align 8, !tbaa !605
  %3 = load ptr, ptr %2, align 8
  %4 = call noundef nonnull align 8 dereferenceable(600) ptr @_ZNK15_scoped_numeralI11mpz_managerILb0EEE1mEv(ptr noundef nonnull align 8 dereferenceable(24) %3)
  %5 = getelementptr inbounds nuw %class._scoped_numeral, ptr %3, i32 0, i32 1
  call void @_ZN11mpz_managerILb0EE5resetER3mpz(ptr noundef nonnull align 8 dereferenceable(600) %4, ptr noundef nonnull align 8 dereferenceable(16) %5)
  ret void
}

; Function Attrs: mustprogress uwtable
define hidden void @_ZN3smt9theory_pb15init_watch_ineqERNS0_4ineqE(ptr noundef nonnull align 8 dereferenceable(968) %0, ptr noundef nonnull align 8 dereferenceable(212) %1) #6 align 2 {
  %3 = alloca ptr, align 8
  %4 = alloca ptr, align 8
  %5 = alloca i32, align 4
  store ptr %0, ptr %3, align 8, !tbaa !624
  store ptr %1, ptr %4, align 8, !tbaa !597
  %6 = load ptr, ptr %4, align 8, !tbaa !597
  %7 = getelementptr inbounds nuw %"struct.smt::theory_pb::ineq", ptr %6, i32 0, i32 12
  call void @_ZN15_scoped_numeralI11mpz_managerILb0EEE5resetEv(ptr noundef nonnull align 8 dereferenceable(24) %7)
  %8 = load ptr, ptr %4, align 8, !tbaa !597
  %9 = getelementptr inbounds nuw %"struct.smt::theory_pb::ineq", ptr %8, i32 0, i32 11
  call void @_ZN15_scoped_numeralI11mpz_managerILb0EEE5resetEv(ptr noundef nonnull align 8 dereferenceable(24) %9)
  %10 = load ptr, ptr %4, align 8, !tbaa !597
  %11 = getelementptr inbounds nuw %"struct.smt::theory_pb::ineq", ptr %10, i32 0, i32 9
  store i32 0, ptr %11, align 8, !tbaa !604
  %12 = load ptr, ptr %4, align 8, !tbaa !597
  %13 = getelementptr inbounds nuw %"struct.smt::theory_pb::ineq", ptr %12, i32 0, i32 8
  call void @_ZN15_scoped_numeralI11mpz_managerILb0EEE5resetEv(ptr noundef nonnull align 8 dereferenceable(24) %13)
  %14 = load ptr, ptr %4, align 8, !tbaa !597
  %15 = getelementptr inbounds nuw %"struct.smt::theory_pb::ineq", ptr %14, i32 0, i32 5
  call void @_ZN15_scoped_numeralI11mpz_managerILb0EEE5resetEv(ptr noundef nonnull align 8 dereferenceable(24) %15)
  %16 = load ptr, ptr %4, align 8, !tbaa !597
  %17 = getelementptr inbounds nuw %"struct.smt::theory_pb::ineq", ptr %16, i32 0, i32 6
  store i32 0, ptr %17, align 8, !tbaa !599
  call void @llvm.lifetime.start.p0(i64 4, ptr %5) #3
  store i32 0, ptr %5, align 4, !tbaa !8
  br label %18

18:                                               ; preds = %31, %2
  %19 = load i32, ptr %5, align 4, !tbaa !8
  %20 = load ptr, ptr %4, align 8, !tbaa !597
  %21 = call noundef i32 @_ZNK3smt9theory_pb4ineq4sizeEv(ptr noundef nonnull align 8 dereferenceable(212) %20)
  %22 = icmp ult i32 %19, %21
  br i1 %22, label %24, label %23

23:                                               ; preds = %18
  call void @llvm.lifetime.end.p0(i64 4, ptr %5) #3
  br label %34

24:                                               ; preds = %18
  %25 = load ptr, ptr %4, align 8, !tbaa !597
  %26 = load i32, ptr %5, align 4, !tbaa !8
  %27 = call noundef nonnull align 8 dereferenceable(16) ptr @_ZNK3smt9theory_pb4ineq6ncoeffEj(ptr noundef nonnull align 8 dereferenceable(212) %25, i32 noundef %26)
  %28 = load ptr, ptr %4, align 8, !tbaa !597
  %29 = getelementptr inbounds nuw %"struct.smt::theory_pb::ineq", ptr %28, i32 0, i32 11
  %30 = call noundef nonnull align 8 dereferenceable(24) ptr @_ZN15_scoped_numeralI11mpz_managerILb0EEEpLERK3mpz(ptr noundef nonnull align 8 dereferenceable(24) %29, ptr noundef nonnull align 8 dereferenceable(16) %27)
  br label %31

31:                                               ; preds = %24
  %32 = load i32, ptr %5, align 4, !tbaa !8
  %33 = add i32 %32, 1
  store i32 %33, ptr %5, align 4, !tbaa !8
  br label %18, !llvm.loop !728

34:                                               ; preds = %23
  ret void
}