; Function Attrs: mustprogress uwtable
define hidden void @_ZN3smt9theory_pb15init_watch_ineqERNS0_4ineqE(ptr nonnull readnone align 8 captures(none) %0, ptr noundef nonnull align 8 dereferenceable(212) %1) local_unnamed_addr #4 align 2 {
  %3 = getelementptr inbounds nuw i8, ptr %1, i64 184
  %4 = load ptr, ptr %3, align 8, !tbaa !640
  %5 = getelementptr inbounds nuw i8, ptr %1, i64 192
  tail call void @_ZN11mpz_managerILb0EE5resetER3mpz(ptr noundef nonnull align 8 dereferenceable(600) %4, ptr noundef nonnull align 8 dereferenceable(16) %5)
  %6 = getelementptr inbounds nuw i8, ptr %1, i64 160
  %7 = load ptr, ptr %6, align 8, !tbaa !640
  %8 = getelementptr inbounds nuw i8, ptr %1, i64 168
  tail call void @_ZN11mpz_managerILb0EE5resetER3mpz(ptr noundef nonnull align 8 dereferenceable(600) %7, ptr noundef nonnull align 8 dereferenceable(16) %8)
  %9 = getelementptr inbounds nuw i8, ptr %1, i64 152
  store i32 0, ptr %9, align 8, !tbaa !646
  %10 = getelementptr inbounds nuw i8, ptr %1, i64 128
  %11 = load ptr, ptr %10, align 8, !tbaa !640
  %12 = getelementptr inbounds nuw i8, ptr %1, i64 136
  tail call void @_ZN11mpz_managerILb0EE5resetER3mpz(ptr noundef nonnull align 8 dereferenceable(600) %11, ptr noundef nonnull align 8 dereferenceable(16) %12)
  %13 = getelementptr inbounds nuw i8, ptr %1, i64 96
  %14 = load ptr, ptr %13, align 8, !tbaa !640
  %15 = getelementptr inbounds nuw i8, ptr %1, i64 104
  tail call void @_ZN11mpz_managerILb0EE5resetER3mpz(ptr noundef nonnull align 8 dereferenceable(600) %14, ptr noundef nonnull align 8 dereferenceable(16) %15)
  %16 = getelementptr inbounds nuw i8, ptr %1, i64 120
  store i32 0, ptr %16, align 8, !tbaa !643
  %17 = getelementptr inbounds nuw i8, ptr %1, i64 16
  %18 = getelementptr inbounds nuw i8, ptr %1, i64 8
  br label %19

19:                                               ; preds = %32, %2
  %indvars.iv = phi i64 [ %indvars.iv.next, %32 ], [ 0, %2 ]
  %20 = load i32, ptr %18, align 8, !tbaa !11
  %21 = and i32 %20, 1
  %22 = zext nneg i32 %21 to i64
  %23 = getelementptr inbounds nuw [2 x %"struct.smt::theory_pb::arg_t"], ptr %17, i64 0, i64 %22
  %24 = load ptr, ptr %23, align 8, !tbaa !3
  %25 = icmp eq ptr %24, null
  br i1 %25, label %_ZNK3smt9theory_pb4ineq4sizeEv.exit, label %26

26:                                               ; preds = %19
  %27 = getelementptr inbounds i8, ptr %24, i64 -4
  %28 = load i32, ptr %27, align 4, !tbaa !9
  %29 = zext i32 %28 to i64
  br label %_ZNK3smt9theory_pb4ineq4sizeEv.exit

_ZNK3smt9theory_pb4ineq4sizeEv.exit:              ; preds = %19, %26
  %.0.i.i = phi i64 [ %29, %26 ], [ 0, %19 ]
  %30 = icmp samesign ult i64 %indvars.iv, %.0.i.i
  br i1 %30, label %32, label %31

31:                                               ; preds = %_ZNK3smt9theory_pb4ineq4sizeEv.exit
  ret void

32:                                               ; preds = %_ZNK3smt9theory_pb4ineq4sizeEv.exit
  %33 = getelementptr inbounds nuw %"struct.std::pair", ptr %24, i64 %indvars.iv, i32 1
  %34 = load ptr, ptr %6, align 8, !tbaa !640
  tail call void @_ZN11mpz_managerILb0EE3addERK3mpzS3_RS1_(ptr noundef nonnull align 8 dereferenceable(600) %34, ptr noundef nonnull align 8 dereferenceable(16) %8, ptr noundef nonnull align 8 dereferenceable(16) %33, ptr noundef nonnull align 8 dereferenceable(16) %8)
  %indvars.iv.next = add nuw nsw i64 %indvars.iv, 1
  br label %19, !llvm.loop !781
}